; Function Attrs: mustprogress uwtable
define noundef zeroext i1 @_ZNK6casadi11GenericType15is_void_pointerEv(ptr noundef nonnull align 8 dereferenceable(8) %0) local_unnamed_addr #3 align 2 {
  %2 = tail call noundef zeroext i1 @_ZNK6casadi13GenericSharedINS_12SharedObjectENS_20SharedObjectInternalEE7is_nullEv(ptr noundef nonnull align 8 dereferenceable(8) %0)
  br i1 %2, label %_ZNK6casadi11GenericType7getTypeEv.exit, label %3

3:                                                ; preds = %1
  %4 = tail call noundef ptr @_ZNK6casadi13GenericSharedINS_12SharedObjectENS_20SharedObjectInternalEE3getEv(ptr noundef nonnull align 8 dereferenceable(8) %0)
  %5 = load ptr, ptr %4, align 8, !tbaa !3
  %6 = getelementptr inbounds nuw i8, ptr %5, i64 32
  %7 = load ptr, ptr %6, align 8
  %8 = tail call noundef i32 %7(ptr noundef nonnull align 8 dereferenceable(24) %4)
  %9 = icmp eq i32 %8, 14
  br label %_ZNK6casadi11GenericType7getTypeEv.exit

_ZNK6casadi11GenericType7getTypeEv.exit:          ; preds = %1, %3
  %.0.i = phi i1 [ %9, %3 ], [ false, %1 ]
  ret i1 %.0.i
}